target datalayout = "e-m:e-p270:32:32-p271:32:32-p272:64:64-i64:64-i128:128-f80:128-n8:16:32:64-S128"
target triple = "x86_64-pc-linux-gnu"

%"class.rocksdb::Status" = type { i8, i8, i8, i8, i8, i8, %"class.std::unique_ptr" }
%"class.std::unique_ptr" = type { %"struct.std::__uniq_ptr_data" }
%"struct.std::__uniq_ptr_data" = type { %"class.std::__uniq_ptr_impl" }
%"class.std::__uniq_ptr_impl" = type { %"class.std::tuple" }
%"class.std::tuple" = type { %"struct.std::_Tuple_impl" }
%"struct.std::_Tuple_impl" = type { %"struct.std::_Head_base.1" }
%"struct.std::_Head_base.1" = type { ptr }
%"class.std::__shared_count" = type { ptr }
%"struct.rocksdb::EnvWrapper::Target" = type { ptr, %"class.std::shared_ptr.135" }
%"class.std::shared_ptr.135" = type { %"class.std::__shared_ptr.136" }
%"class.std::__shared_ptr.136" = type { ptr, %"class.std::__shared_count" }

; Function Attrs: mustprogress nounwind uwtable
define linkonce_odr noundef ptr @_ZNKSt12__shared_ptrIN7rocksdb3EnvELN9__gnu_cxx12_Lock_policyE2EE3getEv(ptr noundef nonnull align 8 dereferenceable(16) %0) #2 comdat align 2 {
  %2 = alloca ptr, align 8
  store ptr %0, ptr %2, align 8, !tbaa !605
  %3 = load ptr, ptr %2, align 8
  %4 = getelementptr inbounds nuw %"class.std::__shared_ptr.136", ptr %3, i32 0, i32 0
  %5 = load ptr, ptr %4, align 8, !tbaa !607
  ret ptr %5
}

; Function Attrs: inlinehint mustprogress uwtable
define internal void @"_ZNK7rocksdb12_GLOBAL__N_13$_2clERKNS_13ConfigOptionsERKNSt7__cxx1112basic_stringIcSt11char_traitsIcESaIcEEEPv"(ptr dead_on_unwind noalias writable sret(%"class.rocksdb::Status") align 8 %0, ptr noundef nonnull align 1 dereferenceable(1) %1, ptr noundef nonnull align 8 dereferenceable(80) %2, ptr noundef nonnull align 8 dereferenceable(32) %3, ptr noundef %4) #14 align 2 {
  %6 = alloca ptr, align 8
  %7 = alloca ptr, align 8
  %8 = alloca ptr, align 8
  %9 = alloca ptr, align 8
  %10 = alloca ptr, align 8
  %11 = alloca ptr, align 8
  store ptr %0, ptr %6, align 8
  store ptr %1, ptr %7, align 8, !tbaa !182
  store ptr %2, ptr %8, align 8, !tbaa !227
  store ptr %3, ptr %9, align 8, !tbaa !9
  store ptr %4, ptr %10, align 8, !tbaa !182
  call void @llvm.lifetime.start.p0(i64 8, ptr %11) #7
  %12 = load ptr, ptr %10, align 8, !tbaa !182
  store ptr %12, ptr %11, align 8, !tbaa !215
  %13 = load ptr, ptr %11, align 8, !tbaa !215
  %14 = getelementptr inbounds nuw %"struct.rocksdb::EnvWrapper::Target", ptr %13, i32 0, i32 1
  %15 = call noundef ptr @_ZNKSt12__shared_ptrIN7rocksdb3EnvELN9__gnu_cxx12_Lock_policyE2EE3getEv(ptr noundef nonnull align 8 dereferenceable(16) %14) #7
  %16 = icmp ne ptr %15, null
  br i1 %16, label %17, label %23

17:                                               ; preds = %5
  %18 = load ptr, ptr %11, align 8, !tbaa !215
  %19 = getelementptr inbounds nuw %"struct.rocksdb::EnvWrapper::Target", ptr %18, i32 0, i32 1
  %20 = call noundef ptr @_ZNKSt12__shared_ptrIN7rocksdb3EnvELN9__gnu_cxx12_Lock_policyE2EE3getEv(ptr noundef nonnull align 8 dereferenceable(16) %19) #7
  %21 = load ptr, ptr %11, align 8, !tbaa !215
  %22 = getelementptr inbounds nuw %"struct.rocksdb::EnvWrapper::Target", ptr %21, i32 0, i32 0
  store ptr %20, ptr %22, align 8, !tbaa !217
  br label %33

23:                                               ; preds = %5
  %24 = load ptr, ptr %11, align 8, !tbaa !215
  %25 = getelementptr inbounds nuw %"struct.rocksdb::EnvWrapper::Target", ptr %24, i32 0, i32 0
  %26 = load ptr, ptr %25, align 8, !tbaa !217
  %27 = icmp eq ptr %26, null
  br i1 %27, label %28, label %32

28:                                               ; preds = %23
  %29 = call noundef ptr @_ZN7rocksdb3Env7DefaultEv()
  %30 = load ptr, ptr %11, align 8, !tbaa !215
  %31 = getelementptr inbounds nuw %"struct.rocksdb::EnvWrapper::Target", ptr %30, i32 0, i32 0
  store ptr %29, ptr %31, align 8, !tbaa !217
  br label %32

32:                                               ; preds = %28, %23
  br label %33

33:                                               ; preds = %32, %17
  %34 = load ptr, ptr %11, align 8, !tbaa !215
  %35 = getelementptr inbounds nuw %"struct.rocksdb::EnvWrapper::Target", ptr %34, i32 0, i32 0
  %36 = load ptr, ptr %35, align 8, !tbaa !217
  %37 = load ptr, ptr %8, align 8, !tbaa !227
  %38 = load ptr, ptr %36, align 8, !tbaa !15
  %39 = getelementptr inbounds ptr, ptr %38, i64 5
  %40 = load ptr, ptr %39, align 8
  call void %40(ptr dead_on_unwind writable sret(%"class.rocksdb::Status") align 8 %0, ptr noundef nonnull align 8 dereferenceable(32) %36, ptr noundef nonnull align 8 dereferenceable(80) %37)
  call void @llvm.lifetime.end.p0(i64 8, ptr %11) #7
  ret void
}

; Function Attrs: mustprogress nounwind uwtable
define linkonce_odr noundef ptr @_ZNKSt9_Any_data9_M_accessEv(ptr noundef nonnull align 8 dereferenceable(16) %0) #2 comdat align 2 {
  %2 = alloca ptr, align 8
  store ptr %0, ptr %2, align 8, !tbaa !581
  %3 = load ptr, ptr %2, align 8
  %4 = getelementptr inbounds [16 x i8], ptr %3, i64 0, i64 0
  ret ptr %4
}

; Function Attrs: mustprogress uwtable
define internal void @"_ZSt13__invoke_implIN7rocksdb6StatusERNS0_12_GLOBAL__N_13$_2EJRKNS0_13ConfigOptionsERKNSt7__cxx1112basic_stringIcSt11char_traitsIcESaIcEEEPvEET_St14__invoke_otherOT0_DpOT1_"(ptr dead_on_unwind noalias writable sret(%"class.rocksdb::Status") align 8 %0, ptr noundef nonnull align 1 dereferenceable(1) %1, ptr noundef nonnull align 8 dereferenceable(80) %2, ptr noundef nonnull align 8 dereferenceable(32) %3, ptr noundef nonnull align 8 dereferenceable(8) %4) #0 {
  %6 = alloca ptr, align 8
  %7 = alloca ptr, align 8
  %8 = alloca ptr, align 8
  %9 = alloca ptr, align 8
  %10 = alloca ptr, align 8
  store ptr %0, ptr %6, align 8
  store ptr %1, ptr %7, align 8, !tbaa !182
  store ptr %2, ptr %8, align 8, !tbaa !227
  store ptr %3, ptr %9, align 8, !tbaa !9
  store ptr %4, ptr %10, align 8, !tbaa !457
  %11 = load ptr, ptr %7, align 8, !tbaa !182
  %12 = load ptr, ptr %8, align 8, !tbaa !227
  %13 = load ptr, ptr %9, align 8, !tbaa !9
  %14 = load ptr, ptr %10, align 8, !tbaa !457
  %15 = load ptr, ptr %14, align 8, !tbaa !182
  call void @"_ZNK7rocksdb12_GLOBAL__N_13$_2clERKNS_13ConfigOptionsERKNSt7__cxx1112basic_stringIcSt11char_traitsIcESaIcEEEPv"(ptr dead_on_unwind writable sret(%"class.rocksdb::Status") align 8 %0, ptr noundef nonnull align 1 dereferenceable(1) %11, ptr noundef nonnull align 8 dereferenceable(80) %12, ptr noundef nonnull align 8 dereferenceable(32) %13, ptr noundef %15)
  ret void
}

; Function Attrs: mustprogress nounwind uwtable
define internal noundef nonnull align 1 dereferenceable(1) ptr @"_ZNKSt9_Any_data9_M_accessIN7rocksdb12_GLOBAL__N_13$_2EEERKT_v"(ptr noundef nonnull align 8 dereferenceable(16) %0) #2 align 2 {
  %2 = alloca ptr, align 8
  store ptr %0, ptr %2, align 8, !tbaa !581
  %3 = load ptr, ptr %2, align 8
  %4 = call noundef ptr @_ZNKSt9_Any_data9_M_accessEv(ptr noundef nonnull align 8 dereferenceable(16) %3) #7
  ret ptr %4
}

; Function Attrs: mustprogress uwtable
define internal void @"_ZSt10__invoke_rIN7rocksdb6StatusERNS0_12_GLOBAL__N_13$_2EJRKNS0_13ConfigOptionsERKNSt7__cxx1112basic_stringIcSt11char_traitsIcESaIcEEEPvEENSt9enable_ifIX16is_invocable_r_vIT_T0_DpT1_EESI_E4typeEOSJ_DpOSK_"(ptr dead_on_unwind noalias writable sret(%"class.rocksdb::Status") align 8 %0, ptr noundef nonnull align 1 dereferenceable(1) %1, ptr noundef nonnull align 8 dereferenceable(80) %2, ptr noundef nonnull align 8 dereferenceable(32) %3, ptr noundef nonnull align 8 dereferenceable(8) %4) #0 {
  %6 = alloca ptr, align 8
  %7 = alloca ptr, align 8
  %8 = alloca ptr, align 8
  %9 = alloca ptr, align 8
  %10 = alloca ptr, align 8
  store ptr %0, ptr %6, align 8
  store ptr %1, ptr %7, align 8, !tbaa !182
  store ptr %2, ptr %8, align 8, !tbaa !227
  store ptr %3, ptr %9, align 8, !tbaa !9
  store ptr %4, ptr %10, align 8, !tbaa !457
  %11 = load ptr, ptr %7, align 8, !tbaa !182
  %12 = load ptr, ptr %8, align 8, !tbaa !227
  %13 = load ptr, ptr %9, align 8, !tbaa !9
  %14 = load ptr, ptr %10, align 8, !tbaa !457
  call void @"_ZSt13__invoke_implIN7rocksdb6StatusERNS0_12_GLOBAL__N_13$_2EJRKNS0_13ConfigOptionsERKNSt7__cxx1112basic_stringIcSt11char_traitsIcESaIcEEEPvEET_St14__invoke_otherOT0_DpOT1_"(ptr dead_on_unwind writable sret(%"class.rocksdb::Status") align 8 %0, ptr noundef nonnull align 1 dereferenceable(1) %11, ptr noundef nonnull align 8 dereferenceable(80) %12, ptr noundef nonnull align 8 dereferenceable(32) %13, ptr noundef nonnull align 8 dereferenceable(8) %14)
  ret void
}

; Function Attrs: mustprogress nounwind uwtable
define internal noundef ptr @"_ZNSt14_Function_base13_Base_managerIN7rocksdb12_GLOBAL__N_13$_2EE14_M_get_pointerERKSt9_Any_data"(ptr noundef nonnull align 8 dereferenceable(16) %0) #2 align 2 {
  %2 = alloca ptr, align 8
  %3 = alloca ptr, align 8
  store ptr %0, ptr %2, align 8, !tbaa !581
  call void @llvm.lifetime.start.p0(i64 8, ptr %3) #7
  %4 = load ptr, ptr %2, align 8, !tbaa !581
  %5 = call noundef nonnull align 1 dereferenceable(1) ptr @"_ZNKSt9_Any_data9_M_accessIN7rocksdb12_GLOBAL__N_13$_2EEERKT_v"(ptr noundef nonnull align 8 dereferenceable(16) %4) #7
  store ptr %5, ptr %3, align 8, !tbaa !182
  %6 = load ptr, ptr %3, align 8, !tbaa !182
  call void @llvm.lifetime.end.p0(i64 8, ptr %3) #7
  ret ptr %6
}

; Function Attrs: mustprogress uwtable
define internal void @"_ZNSt17_Function_handlerIFN7rocksdb6StatusERKNS0_13ConfigOptionsERKNSt7__cxx1112basic_stringIcSt11char_traitsIcESaIcEEEPvENS0_12_GLOBAL__N_13$_2EE9_M_invokeERKSt9_Any_dataS4_SC_OSD_"(ptr dead_on_unwind noalias writable sret(%"class.rocksdb::Status") align 8 %0, ptr noundef nonnull align 8 dereferenceable(16) %1, ptr noundef nonnull align 8 dereferenceable(80) %2, ptr noundef nonnull align 8 dereferenceable(32) %3, ptr noundef nonnull align 8 dereferenceable(8) %4) #0 align 2 {
  %6 = alloca ptr, align 8
  %7 = alloca ptr, align 8
  %8 = alloca ptr, align 8
  %9 = alloca ptr, align 8
  %10 = alloca ptr, align 8
  store ptr %0, ptr %6, align 8
  store ptr %1, ptr %7, align 8, !tbaa !581
  store ptr %2, ptr %8, align 8, !tbaa !227
  store ptr %3, ptr %9, align 8, !tbaa !9
  store ptr %4, ptr %10, align 8, !tbaa !457
  %11 = load ptr, ptr %7, align 8, !tbaa !581
  %12 = call noundef ptr @"_ZNSt14_Function_base13_Base_managerIN7rocksdb12_GLOBAL__N_13$_2EE14_M_get_pointerERKSt9_Any_data"(ptr noundef nonnull align 8 dereferenceable(16) %11) #7
  %13 = load ptr, ptr %8, align 8, !tbaa !227
  %14 = load ptr, ptr %9, align 8, !tbaa !9
  %15 = load ptr, ptr %10, align 8, !tbaa !457
  call void @"_ZSt10__invoke_rIN7rocksdb6StatusERNS0_12_GLOBAL__N_13$_2EJRKNS0_13ConfigOptionsERKNSt7__cxx1112basic_stringIcSt11char_traitsIcESaIcEEEPvEENSt9enable_ifIX16is_invocable_r_vIT_T0_DpT1_EESI_E4typeEOSJ_DpOSK_"(ptr dead_on_unwind writable sret(%"class.rocksdb::Status") align 8 %0, ptr noundef nonnull align 1 dereferenceable(1) %12, ptr noundef nonnull align 8 dereferenceable(80) %13, ptr noundef nonnull align 8 dereferenceable(32) %14, ptr noundef nonnull align 8 dereferenceable(8) %15)
  ret void
}