; Function Attrs: mustprogress uwtable
define internal void @"_ZNSt17_Function_handlerIFN7rocksdb6StatusERKNS0_13ConfigOptionsERKNSt7__cxx1112basic_stringIcSt11char_traitsIcESaIcEEEPvENS0_12_GLOBAL__N_13$_2EE9_M_invokeERKSt9_Any_dataS4_SC_OSD_"(ptr dead_on_unwind noalias writable sret(%"class.rocksdb::Status") align 8 %0, ptr nonnull readnone align 8 captures(none) %1, ptr noundef nonnull align 8 dereferenceable(80) %2, ptr nonnull readnone align 8 captures(none) %3, ptr noundef nonnull readonly align 8 captures(none) dereferenceable(8) %4) #0 align 2 {
  %.val = load ptr, ptr %4, align 8, !tbaa !248
  %6 = getelementptr inbounds nuw i8, ptr %.val, i64 8
  %7 = load ptr, ptr %6, align 8, !tbaa !172, !noalias !253
  %.not.i.i.i = icmp eq ptr %7, null
  br i1 %.not.i.i.i, label %8, label %.sink.split.i.i.i

8:                                                ; preds = %5
  %9 = load ptr, ptr %.val, align 8, !tbaa !162, !noalias !253
  %10 = icmp eq ptr %9, null
  br i1 %10, label %11, label %"_ZSt10__invoke_rIN7rocksdb6StatusERNS0_12_GLOBAL__N_13$_2EJRKNS0_13ConfigOptionsERKNSt7__cxx1112basic_stringIcSt11char_traitsIcESaIcEEEPvEENSt9enable_ifIX16is_invocable_r_vIT_T0_DpT1_EESI_E4typeEOSJ_DpOSK_.exit"

11:                                               ; preds = %8
  %12 = tail call noundef ptr @_ZN7rocksdb3Env7DefaultEv(), !noalias !253
  br label %.sink.split.i.i.i

.sink.split.i.i.i:                                ; preds = %11, %5
  %.sink.i.i.i = phi ptr [ %12, %11 ], [ %7, %5 ]
  store ptr %.sink.i.i.i, ptr %.val, align 8, !tbaa !162, !noalias !253
  br label %"_ZSt10__invoke_rIN7rocksdb6StatusERNS0_12_GLOBAL__N_13$_2EJRKNS0_13ConfigOptionsERKNSt7__cxx1112basic_stringIcSt11char_traitsIcESaIcEEEPvEENSt9enable_ifIX16is_invocable_r_vIT_T0_DpT1_EESI_E4typeEOSJ_DpOSK_.exit"

"_ZSt10__invoke_rIN7rocksdb6StatusERNS0_12_GLOBAL__N_13$_2EJRKNS0_13ConfigOptionsERKNSt7__cxx1112basic_stringIcSt11char_traitsIcESaIcEEEPvEENSt9enable_ifIX16is_invocable_r_vIT_T0_DpT1_EESI_E4typeEOSJ_DpOSK_.exit": ; preds = %8, %.sink.split.i.i.i
  %13 = phi ptr [ %9, %8 ], [ %.sink.i.i.i, %.sink.split.i.i.i ]
  %14 = load ptr, ptr %13, align 8, !tbaa !73, !noalias !253
  %15 = getelementptr inbounds nuw i8, ptr %14, i64 40
  %16 = load ptr, ptr %15, align 8, !noalias !253
  tail call void %16(ptr dead_on_unwind writable sret(%"class.rocksdb::Status") align 8 %0, ptr noundef nonnull align 8 dereferenceable(32) %13, ptr noundef nonnull align 8 dereferenceable(80) %2)
  ret void
}